
samples/findmax.c.elf:     file format elf32-littleriscv


Disassembly of section .text:

00000024 <_start>:
  24:	fe010113          	addi	x2,x2,-32
  28:	00812e23          	sw	x8,28(x2)
  2c:	02010413          	addi	x8,x2,32
  30:	fe042623          	sw	x0,-20(x8)
  34:	00100793          	addi	x15,x0,1
  38:	fef42423          	sw	x15,-24(x8)
  3c:	0440006f          	jal	x0,80 <_start+0x5c>
  40:	0d000713          	addi	x14,x0,208
  44:	fe842783          	lw	x15,-24(x8)
  48:	00279793          	slli	x15,x15,0x2
  4c:	00f707b3          	add	x15,x14,x15
  50:	0007a703          	lw	x14,0(x15)
  54:	0d000693          	addi	x13,x0,208
  58:	fec42783          	lw	x15,-20(x8)
  5c:	00279793          	slli	x15,x15,0x2
  60:	00f687b3          	add	x15,x13,x15
  64:	0007a783          	lw	x15,0(x15)
  68:	00e7d663          	bge	x15,x14,74 <_start+0x50>
  6c:	fe842783          	lw	x15,-24(x8)
  70:	fef42623          	sw	x15,-20(x8)
  74:	fe842783          	lw	x15,-24(x8)
  78:	00178793          	addi	x15,x15,1
  7c:	fef42423          	sw	x15,-24(x8)
  80:	fe842703          	lw	x14,-24(x8)
  84:	01000793          	addi	x15,x0,16
  88:	fae7dce3          	bge	x15,x14,40 <_start+0x1c>
  8c:	00100793          	addi	x15,x0,1
  90:	fec42703          	lw	x14,-20(x8)
  94:	0ff77713          	andi	x14,x14,255
  98:	00e78023          	sb	x14,0(x15)
  9c:	0d000713          	addi	x14,x0,208
  a0:	fec42783          	lw	x15,-20(x8)
  a4:	00279793          	slli	x15,x15,0x2
  a8:	00f707b3          	add	x15,x14,x15
  ac:	0007a703          	lw	x14,0(x15)
  b0:	00200793          	addi	x15,x0,2
  b4:	0ff77713          	andi	x14,x14,255
  b8:	00e78023          	sb	x14,0(x15)
  bc:	00100073          	ebreak
  c0:	00000013          	addi	x0,x0,0
  c4:	01c12403          	lw	x8,28(x2)
  c8:	02010113          	addi	x2,x2,32
  cc:	00008067          	jalr	x0,0(x1)
